; Function Attrs: mustprogress uwtable
define void @_ZN32pxrInternal_v0_24__pxrReserved__10NdrVersionC2Eii(ptr nocapture noundef nonnull writeonly align 4 dereferenceable(9) %0, i32 noundef %1, i32 noundef %2) unnamed_addr #0 align 2 {
  %4 = alloca %"class.pxrInternal_v0_24__pxrReserved__::TfCallContext", align 8
  store i32 %1, ptr %0, align 4
  %5 = getelementptr inbounds nuw i8, ptr %0, i64 4
  store i32 %2, ptr %5, align 4
  %6 = getelementptr inbounds nuw i8, ptr %0, i64 8
  store i8 0, ptr %6, align 4
  %7 = or i32 %2, %1
  %or.cond6 = icmp slt i32 %7, 1
  br i1 %or.cond6, label %8, label %13

8:                                                ; preds = %3
  tail call void @llvm.memset.p0.i64(ptr noundef nonnull align 4 dereferenceable(9) %0, i8 0, i64 9, i1 false)
  store ptr @.str.4, ptr %4, align 8
  %9 = getelementptr inbounds nuw i8, ptr %4, i64 8
  store ptr @__func__._ZN32pxrInternal_v0_24__pxrReserved__10NdrVersionC2Eii, ptr %9, align 8
  %10 = getelementptr inbounds nuw i8, ptr %4, i64 16
  store i64 66, ptr %10, align 8
  %11 = getelementptr inbounds nuw i8, ptr %4, i64 24
  store ptr @__PRETTY_FUNCTION__._ZN32pxrInternal_v0_24__pxrReserved__10NdrVersionC2Eii, ptr %11, align 8
  %12 = getelementptr inbounds nuw i8, ptr %4, i64 32
  store i8 0, ptr %12, align 8
  call void (ptr, i32, ptr, ...) @_ZN32pxrInternal_v0_24__pxrReserved__18Tf_PostErrorHelperERKNS_13TfCallContextENS_16TfDiagnosticTypeEPKcz(ptr noundef nonnull align 8 dereferenceable(33) %4, i32 noundef 1, ptr noundef nonnull @.str.5, i32 noundef %1, i32 noundef %2)
  br label %13

13:                                               ; preds = %3, %8
  ret void
}